target datalayout = "e-m:e-p270:32:32-p271:32:32-p272:64:64-i64:64-i128:128-f80:128-n8:16:32:64-S128"
target triple = "x86_64-pc-linux-gnu"

%struct.X509_algor_st = type { ptr, ptr }
%struct.asn1_string_st = type { i32, i32, ptr, i64 }
%struct.GENERAL_NAME_st = type { i32, %union.anon.0 }
%union.anon.0 = type { ptr }
%struct.X509_acert_st = type { ptr, %struct.X509_algor_st, %struct.asn1_string_st }
%struct.X509_acert_info_st = type { %struct.asn1_string_st, %struct.X509_holder_st, %struct.X509_acert_issuer_st, %struct.X509_algor_st, %struct.asn1_string_st, %struct.X509_val_st, ptr, ptr, ptr }
%struct.X509_holder_st = type { ptr, ptr, ptr }
%struct.X509_acert_issuer_st = type { i32, %union.anon }
%union.anon = type { ptr }
%struct.X509_val_st = type { ptr, ptr }
%struct.X509_acert_issuer_v2form_st = type { ptr, ptr, ptr }

; Function Attrs: inlinehint nounwind uwtable
define internal ptr @ossl_check_const_GENERAL_NAME_sk_type(ptr noundef %0) #3 {
  %2 = alloca ptr, align 8
  store ptr %0, ptr %2, align 8, !tbaa !44
  %3 = load ptr, ptr %2, align 8, !tbaa !44
  ret ptr %3
}

; Function Attrs: nounwind uwtable
define internal ptr @get_dirName(ptr noundef %0) #0 {
  %2 = alloca ptr, align 8
  %3 = alloca ptr, align 8
  %4 = alloca ptr, align 8
  %5 = alloca i32, align 4
  store ptr %0, ptr %3, align 8, !tbaa !44
  call void @llvm.lifetime.start.p0(i64 8, ptr %4) #5
  %6 = load ptr, ptr %3, align 8, !tbaa !44
  %7 = call ptr @ossl_check_const_GENERAL_NAME_sk_type(ptr noundef %6)
  %8 = call i32 @OPENSSL_sk_num(ptr noundef %7)
  %9 = icmp ne i32 %8, 1
  br i1 %9, label %10, label %11

10:                                               ; preds = %1
  store ptr null, ptr %2, align 8
  store i32 1, ptr %5, align 4
  br label %24

11:                                               ; preds = %1
  %12 = load ptr, ptr %3, align 8, !tbaa !44
  %13 = call ptr @ossl_check_const_GENERAL_NAME_sk_type(ptr noundef %12)
  %14 = call ptr @OPENSSL_sk_value(ptr noundef %13, i32 noundef 0)
  store ptr %14, ptr %4, align 8, !tbaa !45
  %15 = load ptr, ptr %4, align 8, !tbaa !45
  %16 = getelementptr inbounds nuw %struct.GENERAL_NAME_st, ptr %15, i32 0, i32 0
  %17 = load i32, ptr %16, align 8, !tbaa !47
  %18 = icmp ne i32 %17, 4
  br i1 %18, label %19, label %20

19:                                               ; preds = %11
  store ptr null, ptr %2, align 8
  store i32 1, ptr %5, align 4
  br label %24

20:                                               ; preds = %11
  %21 = load ptr, ptr %4, align 8, !tbaa !45
  %22 = getelementptr inbounds nuw %struct.GENERAL_NAME_st, ptr %21, i32 0, i32 1
  %23 = load ptr, ptr %22, align 8, !tbaa !49
  store ptr %23, ptr %2, align 8
  store i32 1, ptr %5, align 4
  br label %24

24:                                               ; preds = %20, %19, %10
  call void @llvm.lifetime.end.p0(i64 8, ptr %4) #5
  %25 = load ptr, ptr %2, align 8
  ret ptr %25
}

; Function Attrs: nounwind uwtable
define ptr @X509_ACERT_get0_issuerName(ptr noundef %0) #0 {
  %2 = alloca ptr, align 8
  %3 = alloca ptr, align 8
  store ptr %0, ptr %3, align 8, !tbaa !12
  %4 = load ptr, ptr %3, align 8, !tbaa !12
  %5 = getelementptr inbounds nuw %struct.X509_acert_st, ptr %4, i32 0, i32 0
  %6 = load ptr, ptr %5, align 8, !tbaa !51
  %7 = getelementptr inbounds nuw %struct.X509_acert_info_st, ptr %6, i32 0, i32 2
  %8 = getelementptr inbounds nuw %struct.X509_acert_issuer_st, ptr %7, i32 0, i32 0
  %9 = load i32, ptr %8, align 8, !tbaa !66
  %10 = icmp ne i32 %9, 1
  br i1 %10, label %19, label %11

11:                                               ; preds = %1
  %12 = load ptr, ptr %3, align 8, !tbaa !12
  %13 = getelementptr inbounds nuw %struct.X509_acert_st, ptr %12, i32 0, i32 0
  %14 = load ptr, ptr %13, align 8, !tbaa !51
  %15 = getelementptr inbounds nuw %struct.X509_acert_info_st, ptr %14, i32 0, i32 2
  %16 = getelementptr inbounds nuw %struct.X509_acert_issuer_st, ptr %15, i32 0, i32 1
  %17 = load ptr, ptr %16, align 8, !tbaa !49
  %18 = icmp eq ptr %17, null
  br i1 %18, label %19, label %20

19:                                               ; preds = %11, %1
  store ptr null, ptr %2, align 8
  br label %30

20:                                               ; preds = %11
  %21 = load ptr, ptr %3, align 8, !tbaa !12
  %22 = getelementptr inbounds nuw %struct.X509_acert_st, ptr %21, i32 0, i32 0
  %23 = load ptr, ptr %22, align 8, !tbaa !51
  %24 = getelementptr inbounds nuw %struct.X509_acert_info_st, ptr %23, i32 0, i32 2
  %25 = getelementptr inbounds nuw %struct.X509_acert_issuer_st, ptr %24, i32 0, i32 1
  %26 = load ptr, ptr %25, align 8, !tbaa !49
  %27 = getelementptr inbounds nuw %struct.X509_acert_issuer_v2form_st, ptr %26, i32 0, i32 0
  %28 = load ptr, ptr %27, align 8, !tbaa !67
  %29 = call ptr @get_dirName(ptr noundef %28)
  store ptr %29, ptr %2, align 8
  br label %30

30:                                               ; preds = %20, %19
  %31 = load ptr, ptr %2, align 8
  ret ptr %31
}