; Function Attrs: nounwind uwtable
define ptr @X509_ACERT_get0_issuerName(ptr noundef readonly captures(none) %0) local_unnamed_addr #1 {
  %2 = load ptr, ptr %0, align 8, !tbaa !22
  %3 = getelementptr inbounds nuw i8, ptr %2, i64 48
  %4 = load i32, ptr %3, align 8, !tbaa !40
  %.not = icmp eq i32 %4, 1
  br i1 %.not, label %5, label %get_dirName.exit

5:                                                ; preds = %1
  %6 = getelementptr inbounds nuw i8, ptr %2, i64 56
  %7 = load ptr, ptr %6, align 8, !tbaa !20
  %8 = icmp eq ptr %7, null
  br i1 %8, label %get_dirName.exit, label %9

9:                                                ; preds = %5
  %10 = load ptr, ptr %7, align 8, !tbaa !41
  %11 = tail call i32 @OPENSSL_sk_num(ptr noundef %10) #8
  %.not.i = icmp eq i32 %11, 1
  br i1 %.not.i, label %12, label %get_dirName.exit

12:                                               ; preds = %9
  %13 = tail call ptr @OPENSSL_sk_value(ptr noundef %10, i32 noundef 0) #8
  %14 = load i32, ptr %13, align 8, !tbaa !18
  %.not5.i = icmp eq i32 %14, 4
  br i1 %.not5.i, label %15, label %get_dirName.exit

15:                                               ; preds = %12
  %16 = getelementptr inbounds nuw i8, ptr %13, i64 8
  %17 = load ptr, ptr %16, align 8, !tbaa !20
  br label %get_dirName.exit

get_dirName.exit:                                 ; preds = %15, %12, %9, %1, %5
  %.0 = phi ptr [ null, %5 ], [ null, %1 ], [ %17, %15 ], [ null, %9 ], [ null, %12 ]
  ret ptr %.0
}